target datalayout = "e-m:e-p270:32:32-p271:32:32-p272:64:64-i64:64-i128:128-f80:128-n8:16:32:64-S128"
target triple = "x86_64-pc-linux-gnu"

%"class.llvm::MachineOperand" = type { i32, %union.anon.587, ptr, %"union.llvm::MachineOperand::ContentsUnion" }
%union.anon.587 = type { i32 }
%"union.llvm::MachineOperand::ContentsUnion" = type { %"class.llvm::ArrayRef.588" }
%"class.llvm::ArrayRef.588" = type { ptr, i64 }
%"class.llvm::MachineInstr" = type <{ %"class.llvm::ilist_node_with_parent", ptr, ptr, ptr, [3 x i8], %"class.llvm::ArrayRecycler<llvm::MachineOperand>::Capacity", i32, %"class.llvm::PointerSumType", %"class.llvm::DebugLoc", i32, i16, [2 x i8] }>
%"class.llvm::ilist_node_with_parent" = type { %"class.llvm::ilist_node.605" }
%"class.llvm::ilist_node.605" = type { %"class.llvm::ilist_node_impl.606" }
%"class.llvm::ilist_node_impl.606" = type { %"class.llvm::ilist_node_base.607" }
%"class.llvm::ilist_node_base.607" = type { %"class.llvm::ilist_detail::node_base_prevnext.608" }
%"class.llvm::ilist_detail::node_base_prevnext.608" = type { %"class.llvm::PointerIntPair.609", ptr }
%"class.llvm::PointerIntPair.609" = type { %"struct.llvm::detail::PunnedPointer.610" }
%"struct.llvm::detail::PunnedPointer.610" = type { [8 x i8] }
%"class.llvm::ArrayRecycler<llvm::MachineOperand>::Capacity" = type { i8 }
%"class.llvm::PointerSumType" = type { %"union.llvm::PointerSumType<llvm::MachineInstr::ExtraInfoInlineKinds, llvm::PointerSumTypeMember<0, llvm::MachineMemOperand *>, llvm::PointerSumTypeMember<1, llvm::MCSymbol *>, llvm::PointerSumTypeMember<2, llvm::MCSymbol *>, llvm::PointerSumTypeMember<3, llvm::MachineInstr::ExtraInfo *>>::StorageT" }
%"union.llvm::PointerSumType<llvm::MachineInstr::ExtraInfoInlineKinds, llvm::PointerSumTypeMember<0, llvm::MachineMemOperand *>, llvm::PointerSumTypeMember<1, llvm::MCSymbol *>, llvm::PointerSumTypeMember<2, llvm::MCSymbol *>, llvm::PointerSumTypeMember<3, llvm::MachineInstr::ExtraInfo *>>::StorageT" = type { i64 }
%"class.llvm::DebugLoc" = type { %"class.llvm::TypedTrackingMDRef" }
%"class.llvm::TypedTrackingMDRef" = type { %"class.llvm::TrackingMDRef" }
%"class.llvm::TrackingMDRef" = type { ptr }

; Function Attrs: mustprogress nounwind uwtable
define linkonce_odr hidden noundef i64 @_ZNK4llvm14MachineOperand6getImmEv(ptr noundef nonnull align 8 dereferenceable(32) %0) #0 comdat align 2 {
  %2 = alloca ptr, align 8
  store ptr %0, ptr %2, align 8
  %3 = load ptr, ptr %2, align 8
  %4 = getelementptr inbounds nuw %"class.llvm::MachineOperand", ptr %3, i32 0, i32 3
  %5 = load i64, ptr %4, align 8
  ret i64 %5
}

; Function Attrs: mustprogress nounwind uwtable
define linkonce_odr hidden noundef zeroext i8 @_ZNK4llvm14MachineOperand7getTypeEv(ptr noundef nonnull align 8 dereferenceable(32) %0) #0 comdat align 2 {
  %2 = alloca ptr, align 8
  store ptr %0, ptr %2, align 8
  %3 = load ptr, ptr %2, align 8
  %4 = load i32, ptr %3, align 8
  %5 = and i32 %4, 255
  %6 = trunc i32 %5 to i8
  ret i8 %6
}

; Function Attrs: mustprogress nounwind uwtable
define linkonce_odr hidden noundef nonnull align 8 dereferenceable(32) ptr @_ZNK4llvm12MachineInstr10getOperandEj(ptr noundef nonnull align 8 dereferenceable(70) %0, i32 noundef %1) #0 comdat align 2 {
  %3 = alloca ptr, align 8
  %4 = alloca i32, align 4
  store ptr %0, ptr %3, align 8
  store i32 %1, ptr %4, align 4
  %5 = load ptr, ptr %3, align 8
  %6 = getelementptr inbounds nuw %"class.llvm::MachineInstr", ptr %5, i32 0, i32 3
  %7 = load ptr, ptr %6, align 8
  %8 = load i32, ptr %4, align 4
  %9 = zext i32 %8 to i64
  %10 = getelementptr inbounds %"class.llvm::MachineOperand", ptr %7, i64 %9
  ret ptr %10
}

; Function Attrs: mustprogress nounwind uwtable
define hidden void @_ZN4llvm13X86AsmPrinter13PrintPCRelImmEPKNS_12MachineInstrEjRNS_11raw_ostreamE(ptr noundef nonnull align 8 dereferenceable(896) %0, ptr noundef %1, i32 noundef %2, ptr noundef nonnull align 8 dereferenceable(48) %3) #0 align 2 {
  %5 = alloca ptr, align 8
  %6 = alloca ptr, align 8
  %7 = alloca i32, align 4
  %8 = alloca ptr, align 8
  %9 = alloca ptr, align 8
  store ptr %0, ptr %5, align 8
  store ptr %1, ptr %6, align 8
  store i32 %2, ptr %7, align 4
  store ptr %3, ptr %8, align 8
  %10 = load ptr, ptr %5, align 8
  %11 = load ptr, ptr %6, align 8
  %12 = load i32, ptr %7, align 4
  %13 = call noundef nonnull align 8 dereferenceable(32) ptr @_ZNK4llvm12MachineInstr10getOperandEj(ptr noundef nonnull align 8 dereferenceable(70) %11, i32 noundef %12)
  store ptr %13, ptr %9, align 8
  %14 = load ptr, ptr %9, align 8
  %15 = call noundef zeroext i8 @_ZNK4llvm14MachineOperand7getTypeEv(ptr noundef nonnull align 8 dereferenceable(32) %14)
  %16 = zext i8 %15 to i32
  switch i32 %16, label %17 [
    i32 0, label %18
    i32 1, label %22
    i32 10, label %27
  ]

17:                                               ; preds = %4
  unreachable

18:                                               ; preds = %4
  %19 = load ptr, ptr %6, align 8
  %20 = load i32, ptr %7, align 4
  %21 = load ptr, ptr %8, align 8
  call void @_ZN4llvm13X86AsmPrinter12PrintOperandEPKNS_12MachineInstrEjRNS_11raw_ostreamE(ptr noundef nonnull align 8 dereferenceable(896) %10, ptr noundef %19, i32 noundef %20, ptr noundef nonnull align 8 dereferenceable(48) %21)
  br label %33

22:                                               ; preds = %4
  %23 = load ptr, ptr %8, align 8
  %24 = load ptr, ptr %9, align 8
  %25 = call noundef i64 @_ZNK4llvm14MachineOperand6getImmEv(ptr noundef nonnull align 8 dereferenceable(32) %24)
  %26 = call noundef nonnull align 8 dereferenceable(48) ptr @_ZN4llvm11raw_ostreamlsEl(ptr noundef nonnull align 8 dereferenceable(48) %23, i64 noundef %25)
  br label %33

27:                                               ; preds = %4
  %28 = load ptr, ptr %9, align 8
  %29 = load ptr, ptr %8, align 8
  %30 = load ptr, ptr %10, align 8
  %31 = getelementptr inbounds ptr, ptr %30, i64 54
  %32 = load ptr, ptr %31, align 8
  call void %32(ptr noundef nonnull align 8 dereferenceable(896) %10, ptr noundef nonnull align 8 dereferenceable(32) %28, ptr noundef nonnull align 8 dereferenceable(48) %29)
  br label %33

33:                                               ; preds = %27, %22, %18
  ret void
}