; Function Attrs: mustprogress nounwind uwtable
define hidden void @_ZN4llvm13X86AsmPrinter13PrintPCRelImmEPKNS_12MachineInstrEjRNS_11raw_ostreamE(ptr noundef nonnull align 8 dereferenceable(896) %0, ptr noundef %1, i32 noundef %2, ptr noundef nonnull align 8 dereferenceable(48) %3) local_unnamed_addr #0 align 2 {
  %5 = getelementptr inbounds nuw i8, ptr %1, i64 32
  %6 = load ptr, ptr %5, align 8
  %7 = zext i32 %2 to i64
  %8 = getelementptr inbounds %"class.llvm::MachineOperand", ptr %6, i64 %7
  %9 = load i32, ptr %8, align 8
  %10 = trunc i32 %9 to i8
  switch i8 %10, label %11 [
    i8 0, label %12
    i8 1, label %13
    i8 10, label %17
  ]

11:                                               ; preds = %4
  unreachable

12:                                               ; preds = %4
  tail call void @_ZN4llvm13X86AsmPrinter12PrintOperandEPKNS_12MachineInstrEjRNS_11raw_ostreamE(ptr noundef nonnull align 8 dereferenceable(896) %0, ptr noundef nonnull %1, i32 noundef %2, ptr noundef nonnull align 8 dereferenceable(48) %3)
  br label %21

13:                                               ; preds = %4
  %14 = getelementptr inbounds nuw i8, ptr %8, i64 16
  %15 = load i64, ptr %14, align 8
  %16 = tail call noundef nonnull align 8 dereferenceable(48) ptr @_ZN4llvm11raw_ostreamlsEl(ptr noundef nonnull align 8 dereferenceable(48) %3, i64 noundef %15) #16
  br label %21

17:                                               ; preds = %4
  %18 = load ptr, ptr %0, align 8
  %19 = getelementptr inbounds i8, ptr %18, i64 432
  %20 = load ptr, ptr %19, align 8
  tail call void %20(ptr noundef nonnull align 8 dereferenceable(896) %0, ptr noundef nonnull align 8 dereferenceable(32) %8, ptr noundef nonnull align 8 dereferenceable(48) %3) #16
  br label %21

21:                                               ; preds = %17, %13, %12
  ret void
}